
./farm:     file format elf64-x86-64


Disassembly of section .init:

0000000000001000 <_init>:
    1000:	f3 0f 1e fa          	endbr64 
    1004:	48 83 ec 08          	sub    $0x8,%rsp
    1008:	48 8b 05 d9 2f 00 00 	mov    0x2fd9(%rip),%rax        # 3fe8 <__gmon_start__>
    100f:	48 85 c0             	test   %rax,%rax
    1012:	74 02                	je     1016 <_init+0x16>
    1014:	ff d0                	callq  *%rax
    1016:	48 83 c4 08          	add    $0x8,%rsp
    101a:	c3                   	retq   

Disassembly of section .plt:

0000000000001020 <.plt>:
    1020:	ff 35 a2 2f 00 00    	pushq  0x2fa2(%rip)        # 3fc8 <_GLOBAL_OFFSET_TABLE_+0x8>
    1026:	f2 ff 25 a3 2f 00 00 	bnd jmpq *0x2fa3(%rip)        # 3fd0 <_GLOBAL_OFFSET_TABLE_+0x10>
    102d:	0f 1f 00             	nopl   (%rax)

Disassembly of section .plt.got:

0000000000001030 <__cxa_finalize@plt>:
    1030:	f3 0f 1e fa          	endbr64 
    1034:	f2 ff 25 bd 2f 00 00 	bnd jmpq *0x2fbd(%rip)        # 3ff8 <__cxa_finalize@GLIBC_2.2.5>
    103b:	0f 1f 44 00 00       	nopl   0x0(%rax,%rax,1)

Disassembly of section .text:

0000000000001040 <_start>:
    1040:	f3 0f 1e fa          	endbr64 
    1044:	31 ed                	xor    %ebp,%ebp
    1046:	49 89 d1             	mov    %rdx,%r9
    1049:	5e                   	pop    %rsi
    104a:	48 89 e2             	mov    %rsp,%rdx
    104d:	48 83 e4 f0          	and    $0xfffffffffffffff0,%rsp
    1051:	50                   	push   %rax
    1052:	54                   	push   %rsp
    1053:	4c 8d 05 26 03 00 00 	lea    0x326(%rip),%r8        # 1380 <__libc_csu_fini>
    105a:	48 8d 0d af 02 00 00 	lea    0x2af(%rip),%rcx        # 1310 <__libc_csu_init>
    1061:	48 8d 3d 95 02 00 00 	lea    0x295(%rip),%rdi        # 12fd <main>
    1068:	ff 15 72 2f 00 00    	callq  *0x2f72(%rip)        # 3fe0 <__libc_start_main@GLIBC_2.2.5>
    106e:	f4                   	hlt    
    106f:	90                   	nop

0000000000001070 <deregister_tm_clones>:
    1070:	48 8d 3d 99 2f 00 00 	lea    0x2f99(%rip),%rdi        # 4010 <__TMC_END__>
    1077:	48 8d 05 92 2f 00 00 	lea    0x2f92(%rip),%rax        # 4010 <__TMC_END__>
    107e:	48 39 f8             	cmp    %rdi,%rax
    1081:	74 15                	je     1098 <deregister_tm_clones+0x28>
    1083:	48 8b 05 4e 2f 00 00 	mov    0x2f4e(%rip),%rax        # 3fd8 <_ITM_deregisterTMCloneTable>
    108a:	48 85 c0             	test   %rax,%rax
    108d:	74 09                	je     1098 <deregister_tm_clones+0x28>
    108f:	ff e0                	jmpq   *%rax
    1091:	0f 1f 80 00 00 00 00 	nopl   0x0(%rax)
    1098:	c3                   	retq   
    1099:	0f 1f 80 00 00 00 00 	nopl   0x0(%rax)

00000000000010a0 <register_tm_clones>:
    10a0:	48 8d 3d 69 2f 00 00 	lea    0x2f69(%rip),%rdi        # 4010 <__TMC_END__>
    10a7:	48 8d 35 62 2f 00 00 	lea    0x2f62(%rip),%rsi        # 4010 <__TMC_END__>
    10ae:	48 29 fe             	sub    %rdi,%rsi
    10b1:	48 89 f0             	mov    %rsi,%rax
    10b4:	48 c1 ee 3f          	shr    $0x3f,%rsi
    10b8:	48 c1 f8 03          	sar    $0x3,%rax
    10bc:	48 01 c6             	add    %rax,%rsi
    10bf:	48 d1 fe             	sar    %rsi
    10c2:	74 14                	je     10d8 <register_tm_clones+0x38>
    10c4:	48 8b 05 25 2f 00 00 	mov    0x2f25(%rip),%rax        # 3ff0 <_ITM_registerTMCloneTable>
    10cb:	48 85 c0             	test   %rax,%rax
    10ce:	74 08                	je     10d8 <register_tm_clones+0x38>
    10d0:	ff e0                	jmpq   *%rax
    10d2:	66 0f 1f 44 00 00    	nopw   0x0(%rax,%rax,1)
    10d8:	c3                   	retq   
    10d9:	0f 1f 80 00 00 00 00 	nopl   0x0(%rax)

00000000000010e0 <__do_global_dtors_aux>:
    10e0:	f3 0f 1e fa          	endbr64 
    10e4:	80 3d 25 2f 00 00 00 	cmpb   $0x0,0x2f25(%rip)        # 4010 <__TMC_END__>
    10eb:	75 2b                	jne    1118 <__do_global_dtors_aux+0x38>
    10ed:	55                   	push   %rbp
    10ee:	48 83 3d 02 2f 00 00 	cmpq   $0x0,0x2f02(%rip)        # 3ff8 <__cxa_finalize@GLIBC_2.2.5>
    10f5:	00 
    10f6:	48 89 e5             	mov    %rsp,%rbp
    10f9:	74 0c                	je     1107 <__do_global_dtors_aux+0x27>
    10fb:	48 8b 3d 06 2f 00 00 	mov    0x2f06(%rip),%rdi        # 4008 <__dso_handle>
    1102:	e8 29 ff ff ff       	callq  1030 <__cxa_finalize@plt>
    1107:	e8 64 ff ff ff       	callq  1070 <deregister_tm_clones>
    110c:	c6 05 fd 2e 00 00 01 	movb   $0x1,0x2efd(%rip)        # 4010 <__TMC_END__>
    1113:	5d                   	pop    %rbp
    1114:	c3                   	retq   
    1115:	0f 1f 00             	nopl   (%rax)
    1118:	c3                   	retq   
    1119:	0f 1f 80 00 00 00 00 	nopl   0x0(%rax)

0000000000001120 <frame_dummy>:
    1120:	f3 0f 1e fa          	endbr64 
    1124:	e9 77 ff ff ff       	jmpq   10a0 <register_tm_clones>

0000000000001129 <start_farm>:
    1129:	f3 0f 1e fa          	endbr64 
    112d:	b8 01 00 00 00       	mov    $0x1,%eax
    1132:	c3                   	retq   

0000000000001133 <getval_142>:
    1133:	f3 0f 1e fa          	endbr64 
    1137:	b8 fb 78 90 90       	mov    $0x909078fb,%eax
    113c:	c3                   	retq   

000000000000113d <addval_273>:
    113d:	f3 0f 1e fa          	endbr64 
    1141:	8d 87 48 89 c7 c3    	lea    -0x3c3876b8(%rdi),%eax
    1147:	c3                   	retq   

0000000000001148 <addval_219>:
    1148:	f3 0f 1e fa          	endbr64 
    114c:	8d 87 51 73 58 90    	lea    -0x6fa78caf(%rdi),%eax
    1152:	c3                   	retq   

0000000000001153 <setval_237>:
    1153:	f3 0f 1e fa          	endbr64 
    1157:	c7 07 48 89 c7 c7    	movl   $0xc7c78948,(%rdi)
    115d:	c3                   	retq   

000000000000115e <setval_424>:
    115e:	f3 0f 1e fa          	endbr64 
    1162:	c7 07 54 c2 58 92    	movl   $0x9258c254,(%rdi)
    1168:	c3                   	retq   

0000000000001169 <setval_470>:
    1169:	f3 0f 1e fa          	endbr64 
    116d:	c7 07 63 48 8d c7    	movl   $0xc78d4863,(%rdi)
    1173:	c3                   	retq   

0000000000001174 <setval_426>:
    1174:	f3 0f 1e fa          	endbr64 
    1178:	c7 07 48 89 c7 90    	movl   $0x90c78948,(%rdi)
    117e:	c3                   	retq   

000000000000117f <getval_280>:
    117f:	f3 0f 1e fa          	endbr64 
    1183:	b8 29 58 90 c3       	mov    $0xc3905829,%eax
    1188:	c3                   	retq   

0000000000001189 <mid_farm>:
    1189:	f3 0f 1e fa          	endbr64 
    118d:	b8 01 00 00 00       	mov    $0x1,%eax
    1192:	c3                   	retq   

0000000000001193 <add_xy>:
    1193:	f3 0f 1e fa          	endbr64 
    1197:	48 8d 04 37          	lea    (%rdi,%rsi,1),%rax
    119b:	c3                   	retq   

000000000000119c <getval_481>:
    119c:	f3 0f 1e fa          	endbr64 
    11a0:	b8 5c 89 c2 90       	mov    $0x90c2895c,%eax
    11a5:	c3                   	retq   

00000000000011a6 <setval_296>:
    11a6:	f3 0f 1e fa          	endbr64 
    11aa:	c7 07 99 d1 90 90    	movl   $0x9090d199,(%rdi)
    11b0:	c3                   	retq   

00000000000011b1 <addval_113>:
    11b1:	f3 0f 1e fa          	endbr64 
    11b5:	8d 87 89 ce 78 c9    	lea    -0x36873177(%rdi),%eax
    11bb:	c3                   	retq   

00000000000011bc <addval_490>:
    11bc:	f3 0f 1e fa          	endbr64 
    11c0:	8d 87 8d d1 20 db    	lea    -0x24df2e73(%rdi),%eax
    11c6:	c3                   	retq   

00000000000011c7 <getval_226>:
    11c7:	f3 0f 1e fa          	endbr64 
    11cb:	b8 89 d1 48 c0       	mov    $0xc048d189,%eax
    11d0:	c3                   	retq   

00000000000011d1 <setval_384>:
    11d1:	f3 0f 1e fa          	endbr64 
    11d5:	c7 07 81 d1 84 c0    	movl   $0xc084d181,(%rdi)
    11db:	c3                   	retq   

00000000000011dc <addval_190>:
    11dc:	f3 0f 1e fa          	endbr64 
    11e0:	8d 87 41 48 89 e0    	lea    -0x1f76b7bf(%rdi),%eax
    11e6:	c3                   	retq   

00000000000011e7 <setval_276>:
    11e7:	f3 0f 1e fa          	endbr64 
    11eb:	c7 07 88 c2 08 c9    	movl   $0xc908c288,(%rdi)
    11f1:	c3                   	retq   

00000000000011f2 <addval_436>:
    11f2:	f3 0f 1e fa          	endbr64 
    11f6:	8d 87 89 ce 90 90    	lea    -0x6f6f3177(%rdi),%eax
    11fc:	c3                   	retq   

00000000000011fd <getval_345>:
    11fd:	f3 0f 1e fa          	endbr64 
    1201:	b8 48 89 e0 c1       	mov    $0xc1e08948,%eax
    1206:	c3                   	retq   

0000000000001207 <addval_479>:
    1207:	f3 0f 1e fa          	endbr64 
    120b:	8d 87 89 c2 00 c9    	lea    -0x36ff3d77(%rdi),%eax
    1211:	c3                   	retq   

0000000000001212 <addval_187>:
    1212:	f3 0f 1e fa          	endbr64 
    1216:	8d 87 89 ce 38 c0    	lea    -0x3fc73177(%rdi),%eax
    121c:	c3                   	retq   

000000000000121d <setval_248>:
    121d:	f3 0f 1e fa          	endbr64 
    1221:	c7 07 81 ce 08 db    	movl   $0xdb08ce81,(%rdi)
    1227:	c3                   	retq   

0000000000001228 <getval_159>:
    1228:	f3 0f 1e fa          	endbr64 
    122c:	b8 89 d1 38 c9       	mov    $0xc938d189,%eax
    1231:	c3                   	retq   

0000000000001232 <addval_110>:
    1232:	f3 0f 1e fa          	endbr64 
    1236:	8d 87 c8 89 e0 c3    	lea    -0x3c1f7638(%rdi),%eax
    123c:	c3                   	retq   

000000000000123d <addval_487>:
    123d:	f3 0f 1e fa          	endbr64 
    1241:	8d 87 89 c2 84 c0    	lea    -0x3f7b3d77(%rdi),%eax
    1247:	c3                   	retq   

0000000000001248 <addval_201>:
    1248:	f3 0f 1e fa          	endbr64 
    124c:	8d 87 48 89 e0 c7    	lea    -0x381f76b8(%rdi),%eax
    1252:	c3                   	retq   

0000000000001253 <getval_272>:
    1253:	f3 0f 1e fa          	endbr64 
    1257:	b8 99 d1 08 d2       	mov    $0xd208d199,%eax
    125c:	c3                   	retq   

000000000000125d <getval_155>:
    125d:	f3 0f 1e fa          	endbr64 
    1261:	b8 89 c2 c4 c9       	mov    $0xc9c4c289,%eax
    1266:	c3                   	retq   

0000000000001267 <setval_299>:
    1267:	f3 0f 1e fa          	endbr64 
    126b:	c7 07 48 89 e0 91    	movl   $0x91e08948,(%rdi)
    1271:	c3                   	retq   

0000000000001272 <addval_404>:
    1272:	f3 0f 1e fa          	endbr64 
    1276:	8d 87 89 ce 92 c3    	lea    -0x3c6d3177(%rdi),%eax
    127c:	c3                   	retq   

000000000000127d <getval_311>:
    127d:	f3 0f 1e fa          	endbr64 
    1281:	b8 89 d1 08 db       	mov    $0xdb08d189,%eax
    1286:	c3                   	retq   

0000000000001287 <setval_167>:
    1287:	f3 0f 1e fa          	endbr64 
    128b:	c7 07 89 d1 91 c3    	movl   $0xc391d189,(%rdi)
    1291:	c3                   	retq   

0000000000001292 <setval_328>:
    1292:	f3 0f 1e fa          	endbr64 
    1296:	c7 07 81 c2 38 d2    	movl   $0xd238c281,(%rdi)
    129c:	c3                   	retq   

000000000000129d <setval_450>:
    129d:	f3 0f 1e fa          	endbr64 
    12a1:	c7 07 09 ce 08 c9    	movl   $0xc908ce09,(%rdi)
    12a7:	c3                   	retq   

00000000000012a8 <addval_358>:
    12a8:	f3 0f 1e fa          	endbr64 
    12ac:	8d 87 08 89 e0 90    	lea    -0x6f1f76f8(%rdi),%eax
    12b2:	c3                   	retq   

00000000000012b3 <addval_124>:
    12b3:	f3 0f 1e fa          	endbr64 
    12b7:	8d 87 89 c2 c7 3c    	lea    0x3cc7c289(%rdi),%eax
    12bd:	c3                   	retq   

00000000000012be <getval_169>:
    12be:	f3 0f 1e fa          	endbr64 
    12c2:	b8 88 ce 20 c0       	mov    $0xc020ce88,%eax
    12c7:	c3                   	retq   

00000000000012c8 <setval_181>:
    12c8:	f3 0f 1e fa          	endbr64 
    12cc:	c7 07 48 89 e0 c2    	movl   $0xc2e08948,(%rdi)
    12d2:	c3                   	retq   

00000000000012d3 <addval_184>:
    12d3:	f3 0f 1e fa          	endbr64 
    12d7:	8d 87 89 c2 60 d2    	lea    -0x2d9f3d77(%rdi),%eax
    12dd:	c3                   	retq   

00000000000012de <getval_472>:
    12de:	f3 0f 1e fa          	endbr64 
    12e2:	b8 8d ce 20 d2       	mov    $0xd220ce8d,%eax
    12e7:	c3                   	retq   

00000000000012e8 <setval_350>:
    12e8:	f3 0f 1e fa          	endbr64 
    12ec:	c7 07 48 89 e0 90    	movl   $0x90e08948,(%rdi)
    12f2:	c3                   	retq   

00000000000012f3 <end_farm>:
    12f3:	f3 0f 1e fa          	endbr64 
    12f7:	b8 01 00 00 00       	mov    $0x1,%eax
    12fc:	c3                   	retq   

00000000000012fd <main>:
    12fd:	f3 0f 1e fa          	endbr64 
    1301:	b8 00 00 00 00       	mov    $0x0,%eax
    1306:	c3                   	retq   
    1307:	66 0f 1f 84 00 00 00 	nopw   0x0(%rax,%rax,1)
    130e:	00 00 

0000000000001310 <__libc_csu_init>:
    1310:	f3 0f 1e fa          	endbr64 
    1314:	41 57                	push   %r15
    1316:	4c 8d 3d d3 2a 00 00 	lea    0x2ad3(%rip),%r15        # 3df0 <__frame_dummy_init_array_entry>
    131d:	41 56                	push   %r14
    131f:	49 89 d6             	mov    %rdx,%r14
    1322:	41 55                	push   %r13
    1324:	49 89 f5             	mov    %rsi,%r13
    1327:	41 54                	push   %r12
    1329:	41 89 fc             	mov    %edi,%r12d
    132c:	55                   	push   %rbp
    132d:	48 8d 2d c4 2a 00 00 	lea    0x2ac4(%rip),%rbp        # 3df8 <__do_global_dtors_aux_fini_array_entry>
    1334:	53                   	push   %rbx
    1335:	4c 29 fd             	sub    %r15,%rbp
    1338:	48 83 ec 08          	sub    $0x8,%rsp
    133c:	e8 bf fc ff ff       	callq  1000 <_init>
    1341:	48 c1 fd 03          	sar    $0x3,%rbp
    1345:	74 1f                	je     1366 <__libc_csu_init+0x56>
    1347:	31 db                	xor    %ebx,%ebx
    1349:	0f 1f 80 00 00 00 00 	nopl   0x0(%rax)
    1350:	4c 89 f2             	mov    %r14,%rdx
    1353:	4c 89 ee             	mov    %r13,%rsi
    1356:	44 89 e7             	mov    %r12d,%edi
    1359:	41 ff 14 df          	callq  *(%r15,%rbx,8)
    135d:	48 83 c3 01          	add    $0x1,%rbx
    1361:	48 39 dd             	cmp    %rbx,%rbp
    1364:	75 ea                	jne    1350 <__libc_csu_init+0x40>
    1366:	48 83 c4 08          	add    $0x8,%rsp
    136a:	5b                   	pop    %rbx
    136b:	5d                   	pop    %rbp
    136c:	41 5c                	pop    %r12
    136e:	41 5d                	pop    %r13
    1370:	41 5e                	pop    %r14
    1372:	41 5f                	pop    %r15
    1374:	c3                   	retq   
    1375:	66 66 2e 0f 1f 84 00 	data16 nopw %cs:0x0(%rax,%rax,1)
    137c:	00 00 00 00 

0000000000001380 <__libc_csu_fini>:
    1380:	f3 0f 1e fa          	endbr64 
    1384:	c3                   	retq   

Disassembly of section .fini:

0000000000001388 <_fini>:
    1388:	f3 0f 1e fa          	endbr64 
    138c:	48 83 ec 08          	sub    $0x8,%rsp
    1390:	48 83 c4 08          	add    $0x8,%rsp
    1394:	c3                   	retq   
